; ModuleID = '29/1656.c'
source_filename = "29/1656.c"
target datalayout = "e-m:e-p270:32:32-p271:32:32-p272:64:64-i64:64-f80:128-n8:16:32:64-S128"
target triple = "x86_64-pc-linux-gnu"

@.str = private unnamed_addr constant [3 x i8] c"%d\00", align 1
@.str.1 = private unnamed_addr constant [6 x i8] c"%.3f\0A\00", align 1

; Function Attrs: noinline nounwind uwtable
define dso_local i32 @main() #0 {
  %1 = alloca i32, align 4
  %2 = alloca i32, align 4
  %3 = alloca i32, align 4
  %4 = alloca i32, align 4
  %5 = alloca i32, align 4
  %6 = alloca float, align 4
  %7 = alloca float, align 4
  %8 = alloca float, align 4
  %9 = alloca float, align 4
  %10 = alloca float, align 4
  store i32 0, i32* %1, align 4
  %11 = call i32 (i8*, ...) @__isoc99_scanf(i8* getelementptr inbounds ([3 x i8], [3 x i8]* @.str, i64 0, i64 0), i32* %2)
  store i32 1, i32* %5, align 4
  br label %12

12:                                               ; preds = %55, %0
  %13 = load i32, i32* %5, align 4
  %14 = load i32, i32* %2, align 4
  %15 = icmp sle i32 %13, %14
  br i1 %15, label %16, label %58

16:                                               ; preds = %12
  store float 1.000000e+00, float* %7, align 4
  store float 2.000000e+00, float* %8, align 4
  store float 2.000000e+00, float* %6, align 4
  %17 = call i32 (i8*, ...) @__isoc99_scanf(i8* getelementptr inbounds ([3 x i8], [3 x i8]* @.str, i64 0, i64 0), i32* %3)
  store i32 1, i32* %4, align 4
  br label %18

18:                                               ; preds = %50, %16
  %19 = load i32, i32* %4, align 4
  %20 = load i32, i32* %3, align 4
  %21 = icmp slt i32 %19, %20
  br i1 %21, label %22, label %51

22:                                               ; preds = %18
  %23 = load float, float* %7, align 4
  %24 = load float, float* %8, align 4
  %25 = fadd float %23, %24
  store float %25, float* %7, align 4
  %26 = load float, float* %7, align 4
  %27 = load float, float* %8, align 4
  %28 = fdiv float %26, %27
  store float %28, float* %9, align 4
  %29 = load float, float* %6, align 4
  %30 = load float, float* %9, align 4
  %31 = fadd float %29, %30
  store float %31, float* %6, align 4
  %32 = load i32, i32* %4, align 4
  %33 = add nsw i32 %32, 1
  store i32 %33, i32* %4, align 4
  %34 = load i32, i32* %4, align 4
  %35 = load i32, i32* %3, align 4
  %36 = icmp eq i32 %34, %35
  br i1 %36, label %37, label %38

37:                                               ; preds = %22
  br label %51

38:                                               ; preds = %22
  %39 = load float, float* %7, align 4
  %40 = load float, float* %8, align 4
  %41 = fadd float %39, %40
  store float %41, float* %8, align 4
  %42 = load float, float* %8, align 4
  %43 = load float, float* %7, align 4
  %44 = fdiv float %42, %43
  store float %44, float* %10, align 4
  %45 = load float, float* %6, align 4
  %46 = load float, float* %10, align 4
  %47 = fadd float %45, %46
  store float %47, float* %6, align 4
  %48 = load i32, i32* %4, align 4
  %49 = add nsw i32 %48, 1
  store i32 %49, i32* %4, align 4
  br label %50

50:                                               ; preds = %38
  br label %18

51:                                               ; preds = %37, %18
  %52 = load float, float* %6, align 4
  %53 = fpext float %52 to double
  %54 = call i32 (i8*, ...) @printf(i8* getelementptr inbounds ([6 x i8], [6 x i8]* @.str.1, i64 0, i64 0), double %53)
  br label %55

55:                                               ; preds = %51
  %56 = load i32, i32* %5, align 4
  %57 = add nsw i32 %56, 1
  store i32 %57, i32* %5, align 4
  br label %12

58:                                               ; preds = %12
  ret i32 0
}

declare dso_local i32 @__isoc99_scanf(i8*, ...) #1

declare dso_local i32 @printf(i8*, ...) #1


!llvm.module.flags = !{!0}
!llvm.ident = !{!1}

!0 = !{i32 1, !"wchar_size", i32 4}
!1 = !{!"clang version 10.0.0-4ubuntu1 "}
